(dp1
S'text'
p2
V    Troy collision and comprehensive coverage and higher liability coverage than the legal minimums in most States will probably have to get at least $100,000 coverage for the other drivers medical expenses in an accident and fifty thousand dollars for damage to the other vehicle finally most auto leases prevent you from shoes        thinking about leasing your next car also think about whether you'll have to pay more for its insurance why consumers
p3
sS'station'
p4
S'kcbs'
p5
sS'time'
p6
cdatetime
datetime
p7
(S'\x07\xde\x0b\t\x00\x1c\x03\x00\x00\x00'
tRp8
sS'file'
p9
S'kcbs-201411090027.mp3'
p10
sS'id_semgent'
p11
S'201411090027'
p12
s.