(dp1
S'text'
p2
V       if we don't know where we came from we have no idea where we're going Allison Keyes CBS News Washington  how long before man did my polar bears a white and geckos green leopard spots in the tiger stripes play Magic  life is their coloration matches their surroundings in combat 2 yeah I did it is to see but not be ski trips always Barn white jungle fighters in shades of green and brown for optical illusion  in Poland for example in the projects called the PLO one tank which continuously would change
p3
sS'station'
p4
S'kcbs'
p5
sS'time'
p6
cdatetime
datetime
p7
(S"\x07\xde\x0b\t\x00'\x02\x00\x00\x00"
tRp8
sS'file'
p9
S'kcbs-201411090038.mp3'
p10
sS'id_semgent'
p11
S'201411090038'
p12
s.