(dp1
S'text'
p2
V  Steiner Sports when the market shop in people's portfolios are business does well why diner sell sports memorabilia can be a secondary investment for people and he says some look at it   I loved ones and kids and that sort of thing Steiner says when the market strong he sees people buying more expensive items     takes a little time to become informed start by finding of sweet like cinnamon toast in counselor today   
p3
sS'station'
p4
S'kcbs'
p5
sS'time'
p6
cdatetime
datetime
p7
(S'\x07\xde\x0b\t\x00\x1b\x03\x00\x00\x00'
tRp8
sS'file'
p9
S'kcbs-201411090026.mp3'
p10
sS'id_semgent'
p11
S'201411090026'
p12
s.