(dp1
S'text'
p2
V   45 years Mancini sleepworld you to the perfect mattress at the lowest possible price  and we found what we needed at Mancini sleepworld call 1 800 64 sleep or visit sleep I would go anywhere else but me and see me sequel the bridge tower it's due to an injury accident and they said it would be reopen about 5 minutes ago   free of the right lane they telling us they make you pass two left lanes shut down San Francisco new problem 280 northbound before Geneva that report to the mattress in the roadway 2 minutes later multi vehicle injury accident in the right lane   sunny day tomorrow look for highs in the sixties at the beaches upper seventies for the inland areas of winter Spare the Air day
p3
sS'station'
p4
S'kcbs'
p5
sS'time'
p6
cdatetime
datetime
p7
(S'\x07\xde\x0b\t\x00\x1f\x03\x00\x00\x00'
tRp8
sS'file'
p9
S'kcbs-201411090030.mp3'
p10
sS'id_semgent'
p11
S'201411090030'
p12
s.