(dp1
S'text'
p2
Vunique from all corners of the country and thanks to their common experience a family for life      can only takes a little time to become informed start by finding of sweet like cinnamon housing counselor today    and communities are standing by their service members and veteran now more than ever we're all in this together  times of crisis reach out and call dial +1 800-273-8255 and press 1 porn chat online at veteranscrisisline.net or text 838255 Carlos you getting ready for bed a little bad I'm studying
p3
sS'station'
p4
S'kcbs'
p5
sS'time'
p6
cdatetime
datetime
p7
(S'\x07\xde\x0b\t\x00\x1a\x02\x00\x00\x00'
tRp8
sS'file'
p9
S'kcbs-201411090025.mp3'
p10
sS'id_semgent'
p11
S'201411090025'
p12
s.