(dp1
S'text'
p2
Vdo you clean a mattress that was in the roadway the right lane is blocked traffic 24 7 X update 9:48 a.m.   music news on demand shows     night clothes in the fifties should be sunny and clear tomorrow with highs ranging from the sixties that the beaches of 474     free destination for CVS events and concerts coming up in the AT&T news sports an interactive radio.com 24 7 interactive network for news sports
p3
sS'station'
p4
S'kcbs'
p5
sS'time'
p6
cdatetime
datetime
p7
(S'\x07\xde\x0b\t\x00*\x02\x00\x00\x00'
tRp8
sS'file'
p9
S'kcbs-201411090041.mp3'
p10
sS'id_semgent'
p11
S'201411090041'
p12
s.