(dp1
S'text'
p2
V  emission fuel pump seal defenses choice as a reformer he is apps part of the solution and I think he deserves more respect for taking on such a full grown   and calling for an independent community board complaints outside Rikers Island  sportsradio.com  WCBS news time is  twelve 60 sounding Saturday at the entrance to Rikers Island Tarrytown 2000 protesters street outside Rikers Island in a way sleep deprivation malnutrition it's torture 
p3
sS'station'
p4
S'wcbs'
p5
sS'time'
p6
cdatetime
datetime
p7
(S'\x07\xde\x0b\t\x00&\x04\x00\x00\x00'
tRp8
sS'file'
p9
S'wcbs-201411090037.mp3'
p10
sS'id_semgent'
p11
S'201411090037'
p12
s.