(dp1
S'text'
p2
V      is closed until Monday morning at 6 for construction and also the exit from the BQE  recent  music  do.com  it was just talking jim Coleman I bet you people on a proportionate bill Parkway
p3
sS'station'
p4
S'wcbs'
p5
sS'time'
p6
cdatetime
datetime
p7
(S'\x07\xde\x0b\t\x00)\x04\x00\x00\x00'
tRp8
sS'file'
p9
S'wcbs-201411090040.mp3'
p10
sS'id_semgent'
p11
S'201411090040'
p12
s.