(dp1
S'text'
p2
Vliving up to his profession grand theft but the getaway sounded funny advocate any intelligence surveillance reconnaissance over areas and that is even though it take to get to send edge CBS News senior national security analyst 10 removing Abu Bakr al Baghdadi from the picture would be a very big do you throw the cafe didn't do a bit of a turmoil because it review of leadership succession question and no doubt questions not only in early but external yes to legitimacy of the next frontier albeit daughter his dick   who beat Arizona 1 zip WCBS news time is 12:31  finger is looking into the unofficial World of Warplanes me of taking out the head of ice   instantly looking for Isis targets and are ready to move when they spotted we do
p3
sS'station'
p4
S'wcbs'
p5
sS'time'
p6
cdatetime
datetime
p7
(S'\x07\xde\x0b\t\x00!\x03\x00\x00\x00'
tRp8
sS'file'
p9
S'wcbs-201411090032.mp3'
p10
sS'id_semgent'
p11
S'201411090032'
p12
s.