(dp1
S'text'
p2
Vnot likely to be taken up by the Senate until after the new Republican controlled Congress radio.com  music from the penis    x-office in January to McGuire Washington will get the motors in a minute Alicia vs newstime 1234 radio.com for 24 7 interactive network for news sports   music from the biggest star in his legend dragon music 
p3
sS'station'
p4
S'wcbs'
p5
sS'time'
p6
cdatetime
datetime
p7
(S'\x07\xde\x0b\t\x00%\x03\x00\x00\x00'
tRp8
sS'file'
p9
S'wcbs-201411090036.mp3'
p10
sS'id_semgent'
p11
S'201411090036'
p12
s.